target datalayout = "e-m:e-p270:32:32-p271:32:32-p272:64:64-i64:64-i128:128-f80:128-n8:16:32:64-S128"
target triple = "x86_64-pc-linux-gnu"

%struct._zend_executor_globals = type { %struct._zval_struct, %struct._zval_struct, [32 x ptr], ptr, ptr, %struct._zend_array, %struct._zend_array, ptr, i32, i8, %struct._zval_struct, i32, ptr, ptr, ptr, ptr, ptr, ptr, i64, ptr, ptr, i32, ptr, i32, i64, i32, i32, i32, i8, i8, %struct.zend_atomic_bool_s, %struct.zend_atomic_bool_s, ptr, i64, ptr, ptr, %struct._zend_array, %struct._zend_array, i32, i8, %struct._zval_struct, %struct._zval_struct, %struct._zend_stack, %struct._zend_stack, %struct._zend_stack, ptr, i32, i32, i64, ptr, ptr, ptr, %struct._zend_objects_store, %struct._zend_lazy_objects_store, ptr, ptr, ptr, [3 x %struct._zend_op], ptr, i8, i8, i64, i32, i32, ptr, [16 x %struct._HashTableIterator], ptr, %union._zend_function, %struct._zend_op, %struct._zend_array, i64, %struct.zend_get_gc_buffer, ptr, ptr, ptr, i64, i8, i32, ptr, ptr, i64, %struct._zend_call_stack, i64, i64, %struct._zend_strtod_state, [6 x ptr] }
%struct.zend_atomic_bool_s = type { i8 }
%struct._zval_struct = type { %union._zend_value, %union.anon, %union.anon.2 }
%union._zend_value = type { i64 }
%union.anon = type { i32 }
%union.anon.2 = type { i32 }
%struct._zend_stack = type { i32, i32, i32, ptr }
%struct._zend_objects_store = type { ptr, i32, i32, i32 }
%struct._zend_lazy_objects_store = type { %struct._zend_array }
%struct._HashTableIterator = type { ptr, i32, i32 }
%union._zend_function = type { %struct._zend_op_array }
%struct._zend_op_array = type { i8, [3 x i8], i32, ptr, ptr, ptr, i32, i32, ptr, ptr, ptr, ptr, i32, ptr, i32, i32, i32, ptr, ptr, ptr, ptr, ptr, i32, i32, ptr, ptr, ptr, i32, i32, i32, i32, ptr, ptr, [6 x ptr] }
%struct._zend_op = type { ptr, %union._znode_op, %union._znode_op, %union._znode_op, i32, i32, i8, i8, i8, i8 }
%union._znode_op = type { i32 }
%struct._zend_array = type { %struct._zend_refcounted_h, %union.anon.4, i32, %union.anon.6, i32, i32, i32, i32, i64, ptr }
%struct._zend_refcounted_h = type { i32, %union.anon.3 }
%union.anon.3 = type { i32 }
%union.anon.4 = type { i32 }
%union.anon.6 = type { ptr }
%struct.zend_get_gc_buffer = type { ptr, ptr, ptr }
%struct._zend_call_stack = type { ptr, i64 }
%struct._zend_strtod_state = type { [8 x ptr], ptr, ptr }
%struct._zend_strtod_bigint = type { ptr, i32, i32, i32, i32, [1 x i32] }

@executor_globals = external global %struct._zend_executor_globals, align 8
@.str.8 = private unnamed_addr constant [35 x i8] c"Balloc() failed to allocate memory\00", align 1

; Function Attrs: nounwind uwtable
define internal ptr @Balloc(i32 noundef %0) #0 {
  %2 = alloca i32, align 4
  %3 = alloca i32, align 4
  %4 = alloca ptr, align 8
  store i32 %0, ptr %2, align 4, !tbaa !4
  call void @llvm.lifetime.start.p0(i64 4, ptr %3) #7
  call void @llvm.lifetime.start.p0(i64 8, ptr %4) #7
  %5 = load i32, ptr %2, align 4, !tbaa !4
  %6 = icmp sle i32 %5, 7
  br i1 %6, label %7, label %20

7:                                                ; preds = %1
  %8 = load i32, ptr %2, align 4, !tbaa !4
  %9 = sext i32 %8 to i64
  %10 = getelementptr inbounds [8 x ptr], ptr getelementptr inbounds nuw (%struct._zend_executor_globals, ptr @executor_globals, i32 0, i32 84), i64 0, i64 %9
  %11 = load ptr, ptr %10, align 8, !tbaa !11
  store ptr %11, ptr %4, align 8, !tbaa !11
  %12 = icmp ne ptr %11, null
  br i1 %12, label %13, label %20

13:                                               ; preds = %7
  %14 = load ptr, ptr %4, align 8, !tbaa !11
  %15 = getelementptr inbounds nuw %struct._zend_strtod_bigint, ptr %14, i32 0, i32 0
  %16 = load ptr, ptr %15, align 8, !tbaa !13
  %17 = load i32, ptr %2, align 4, !tbaa !4
  %18 = sext i32 %17 to i64
  %19 = getelementptr inbounds [8 x ptr], ptr getelementptr inbounds nuw (%struct._zend_executor_globals, ptr @executor_globals, i32 0, i32 84), i64 0, i64 %18
  store ptr %16, ptr %19, align 8, !tbaa !11
  br label %39

20:                                               ; preds = %7, %1
  %21 = load i32, ptr %2, align 4, !tbaa !4
  %22 = shl i32 1, %21
  store i32 %22, ptr %3, align 4, !tbaa !4
  %23 = load i32, ptr %3, align 4, !tbaa !4
  %24 = sub nsw i32 %23, 1
  %25 = sext i32 %24 to i64
  %26 = mul i64 %25, 4
  %27 = add i64 32, %26
  %28 = call noalias ptr @malloc(i64 noundef %27) #8
  store ptr %28, ptr %4, align 8, !tbaa !11
  %29 = load ptr, ptr %4, align 8, !tbaa !11
  %30 = icmp ne ptr %29, null
  br i1 %30, label %32, label %31

31:                                               ; preds = %20
  call void (i32, ptr, ...) @zend_error_noreturn(i32 noundef 1, ptr noundef @.str.8) #9
  unreachable

32:                                               ; preds = %20
  %33 = load i32, ptr %2, align 4, !tbaa !4
  %34 = load ptr, ptr %4, align 8, !tbaa !11
  %35 = getelementptr inbounds nuw %struct._zend_strtod_bigint, ptr %34, i32 0, i32 1
  store i32 %33, ptr %35, align 8, !tbaa !63
  %36 = load i32, ptr %3, align 4, !tbaa !4
  %37 = load ptr, ptr %4, align 8, !tbaa !11
  %38 = getelementptr inbounds nuw %struct._zend_strtod_bigint, ptr %37, i32 0, i32 2
  store i32 %36, ptr %38, align 4, !tbaa !67
  br label %39

39:                                               ; preds = %32, %13
  %40 = load ptr, ptr %4, align 8, !tbaa !11
  %41 = getelementptr inbounds nuw %struct._zend_strtod_bigint, ptr %40, i32 0, i32 4
  store i32 0, ptr %41, align 4, !tbaa !64
  %42 = load ptr, ptr %4, align 8, !tbaa !11
  %43 = getelementptr inbounds nuw %struct._zend_strtod_bigint, ptr %42, i32 0, i32 3
  store i32 0, ptr %43, align 8, !tbaa !65
  %44 = load ptr, ptr %4, align 8, !tbaa !11
  call void @llvm.lifetime.end.p0(i64 8, ptr %4) #7
  call void @llvm.lifetime.end.p0(i64 4, ptr %3) #7
  ret ptr %44
}

; Function Attrs: nounwind uwtable
define internal ptr @mult(ptr noundef %0, ptr noundef %1) #0 {
  %3 = alloca ptr, align 8
  %4 = alloca ptr, align 8
  %5 = alloca ptr, align 8
  %6 = alloca i32, align 4
  %7 = alloca i32, align 4
  %8 = alloca i32, align 4
  %9 = alloca i32, align 4
  %10 = alloca ptr, align 8
  %11 = alloca ptr, align 8
  %12 = alloca ptr, align 8
  %13 = alloca ptr, align 8
  %14 = alloca ptr, align 8
  %15 = alloca ptr, align 8
  %16 = alloca ptr, align 8
  %17 = alloca i32, align 4
  %18 = alloca i64, align 8
  %19 = alloca i64, align 8
  store ptr %0, ptr %3, align 8, !tbaa !11
  store ptr %1, ptr %4, align 8, !tbaa !11
  call void @llvm.lifetime.start.p0(i64 8, ptr %5) #7
  call void @llvm.lifetime.start.p0(i64 4, ptr %6) #7
  call void @llvm.lifetime.start.p0(i64 4, ptr %7) #7
  call void @llvm.lifetime.start.p0(i64 4, ptr %8) #7
  call void @llvm.lifetime.start.p0(i64 4, ptr %9) #7
  call void @llvm.lifetime.start.p0(i64 8, ptr %10) #7
  call void @llvm.lifetime.start.p0(i64 8, ptr %11) #7
  call void @llvm.lifetime.start.p0(i64 8, ptr %12) #7
  call void @llvm.lifetime.start.p0(i64 8, ptr %13) #7
  call void @llvm.lifetime.start.p0(i64 8, ptr %14) #7
  call void @llvm.lifetime.start.p0(i64 8, ptr %15) #7
  call void @llvm.lifetime.start.p0(i64 8, ptr %16) #7
  call void @llvm.lifetime.start.p0(i64 4, ptr %17) #7
  call void @llvm.lifetime.start.p0(i64 8, ptr %18) #7
  call void @llvm.lifetime.start.p0(i64 8, ptr %19) #7
  %20 = load ptr, ptr %3, align 8, !tbaa !11
  %21 = getelementptr inbounds nuw %struct._zend_strtod_bigint, ptr %20, i32 0, i32 4
  %22 = load i32, ptr %21, align 4, !tbaa !64
  %23 = load ptr, ptr %4, align 8, !tbaa !11
  %24 = getelementptr inbounds nuw %struct._zend_strtod_bigint, ptr %23, i32 0, i32 4
  %25 = load i32, ptr %24, align 4, !tbaa !64
  %26 = icmp slt i32 %22, %25
  br i1 %26, label %27, label %31

27:                                               ; preds = %2
  %28 = load ptr, ptr %3, align 8, !tbaa !11
  store ptr %28, ptr %5, align 8, !tbaa !11
  %29 = load ptr, ptr %4, align 8, !tbaa !11
  store ptr %29, ptr %3, align 8, !tbaa !11
  %30 = load ptr, ptr %5, align 8, !tbaa !11
  store ptr %30, ptr %4, align 8, !tbaa !11
  br label %31

31:                                               ; preds = %27, %2
  %32 = load ptr, ptr %3, align 8, !tbaa !11
  %33 = getelementptr inbounds nuw %struct._zend_strtod_bigint, ptr %32, i32 0, i32 1
  %34 = load i32, ptr %33, align 8, !tbaa !63
  store i32 %34, ptr %6, align 4, !tbaa !4
  %35 = load ptr, ptr %3, align 8, !tbaa !11
  %36 = getelementptr inbounds nuw %struct._zend_strtod_bigint, ptr %35, i32 0, i32 4
  %37 = load i32, ptr %36, align 4, !tbaa !64
  store i32 %37, ptr %7, align 4, !tbaa !4
  %38 = load ptr, ptr %4, align 8, !tbaa !11
  %39 = getelementptr inbounds nuw %struct._zend_strtod_bigint, ptr %38, i32 0, i32 4
  %40 = load i32, ptr %39, align 4, !tbaa !64
  store i32 %40, ptr %8, align 4, !tbaa !4
  %41 = load i32, ptr %7, align 4, !tbaa !4
  %42 = load i32, ptr %8, align 4, !tbaa !4
  %43 = add nsw i32 %41, %42
  store i32 %43, ptr %9, align 4, !tbaa !4
  %44 = load i32, ptr %9, align 4, !tbaa !4
  %45 = load ptr, ptr %3, align 8, !tbaa !11
  %46 = getelementptr inbounds nuw %struct._zend_strtod_bigint, ptr %45, i32 0, i32 2
  %47 = load i32, ptr %46, align 4, !tbaa !67
  %48 = icmp sgt i32 %44, %47
  br i1 %48, label %49, label %52

49:                                               ; preds = %31
  %50 = load i32, ptr %6, align 4, !tbaa !4
  %51 = add nsw i32 %50, 1
  store i32 %51, ptr %6, align 4, !tbaa !4
  br label %52

52:                                               ; preds = %49, %31
  %53 = load i32, ptr %6, align 4, !tbaa !4
  %54 = call ptr @Balloc(i32 noundef %53)
  store ptr %54, ptr %5, align 8, !tbaa !11
  %55 = load ptr, ptr %5, align 8, !tbaa !11
  %56 = getelementptr inbounds nuw %struct._zend_strtod_bigint, ptr %55, i32 0, i32 5
  %57 = getelementptr inbounds [1 x i32], ptr %56, i64 0, i64 0
  store ptr %57, ptr %10, align 8, !tbaa !69
  %58 = load ptr, ptr %10, align 8, !tbaa !69
  %59 = load i32, ptr %9, align 4, !tbaa !4
  %60 = sext i32 %59 to i64
  %61 = getelementptr inbounds i32, ptr %58, i64 %60
  store ptr %61, ptr %11, align 8, !tbaa !69
  br label %62

62:                                               ; preds = %68, %52
  %63 = load ptr, ptr %10, align 8, !tbaa !69
  %64 = load ptr, ptr %11, align 8, !tbaa !69
  %65 = icmp ult ptr %63, %64
  br i1 %65, label %66, label %71

66:                                               ; preds = %62
  %67 = load ptr, ptr %10, align 8, !tbaa !69
  store i32 0, ptr %67, align 4, !tbaa !4
  br label %68

68:                                               ; preds = %66
  %69 = load ptr, ptr %10, align 8, !tbaa !69
  %70 = getelementptr inbounds nuw i32, ptr %69, i32 1
  store ptr %70, ptr %10, align 8, !tbaa !69
  br label %62

71:                                               ; preds = %62
  %72 = load ptr, ptr %3, align 8, !tbaa !11
  %73 = getelementptr inbounds nuw %struct._zend_strtod_bigint, ptr %72, i32 0, i32 5
  %74 = getelementptr inbounds [1 x i32], ptr %73, i64 0, i64 0
  store ptr %74, ptr %11, align 8, !tbaa !69
  %75 = load ptr, ptr %11, align 8, !tbaa !69
  %76 = load i32, ptr %7, align 4, !tbaa !4
  %77 = sext i32 %76 to i64
  %78 = getelementptr inbounds i32, ptr %75, i64 %77
  store ptr %78, ptr %12, align 8, !tbaa !69
  %79 = load ptr, ptr %4, align 8, !tbaa !11
  %80 = getelementptr inbounds nuw %struct._zend_strtod_bigint, ptr %79, i32 0, i32 5
  %81 = getelementptr inbounds [1 x i32], ptr %80, i64 0, i64 0
  store ptr %81, ptr %13, align 8, !tbaa !69
  %82 = load ptr, ptr %13, align 8, !tbaa !69
  %83 = load i32, ptr %8, align 4, !tbaa !4
  %84 = sext i32 %83 to i64
  %85 = getelementptr inbounds i32, ptr %82, i64 %84
  store ptr %85, ptr %14, align 8, !tbaa !69
  %86 = load ptr, ptr %5, align 8, !tbaa !11
  %87 = getelementptr inbounds nuw %struct._zend_strtod_bigint, ptr %86, i32 0, i32 5
  %88 = getelementptr inbounds [1 x i32], ptr %87, i64 0, i64 0
  store ptr %88, ptr %16, align 8, !tbaa !69
  br label %89

89:                                               ; preds = %131, %71
  %90 = load ptr, ptr %13, align 8, !tbaa !69
  %91 = load ptr, ptr %14, align 8, !tbaa !69
  %92 = icmp ult ptr %90, %91
  br i1 %92, label %93, label %134

93:                                               ; preds = %89
  %94 = load ptr, ptr %13, align 8, !tbaa !69
  %95 = getelementptr inbounds nuw i32, ptr %94, i32 1
  store ptr %95, ptr %13, align 8, !tbaa !69
  %96 = load i32, ptr %94, align 4, !tbaa !4
  store i32 %96, ptr %17, align 4, !tbaa !4
  %97 = icmp ne i32 %96, 0
  br i1 %97, label %98, label %130

98:                                               ; preds = %93
  %99 = load ptr, ptr %11, align 8, !tbaa !69
  store ptr %99, ptr %10, align 8, !tbaa !69
  %100 = load ptr, ptr %16, align 8, !tbaa !69
  store ptr %100, ptr %15, align 8, !tbaa !69
  store i64 0, ptr %18, align 8, !tbaa !71
  br label %101

101:                                              ; preds = %122, %98
  %102 = load ptr, ptr %10, align 8, !tbaa !69
  %103 = getelementptr inbounds nuw i32, ptr %102, i32 1
  store ptr %103, ptr %10, align 8, !tbaa !69
  %104 = load i32, ptr %102, align 4, !tbaa !4
  %105 = zext i32 %104 to i64
  %106 = load i32, ptr %17, align 4, !tbaa !4
  %107 = zext i32 %106 to i64
  %108 = mul i64 %105, %107
  %109 = load ptr, ptr %15, align 8, !tbaa !69
  %110 = load i32, ptr %109, align 4, !tbaa !4
  %111 = zext i32 %110 to i64
  %112 = add i64 %108, %111
  %113 = load i64, ptr %18, align 8, !tbaa !71
  %114 = add i64 %112, %113
  store i64 %114, ptr %19, align 8, !tbaa !71
  %115 = load i64, ptr %19, align 8, !tbaa !71
  %116 = lshr i64 %115, 32
  store i64 %116, ptr %18, align 8, !tbaa !71
  %117 = load i64, ptr %19, align 8, !tbaa !71
  %118 = and i64 %117, 4294967295
  %119 = trunc i64 %118 to i32
  %120 = load ptr, ptr %15, align 8, !tbaa !69
  %121 = getelementptr inbounds nuw i32, ptr %120, i32 1
  store ptr %121, ptr %15, align 8, !tbaa !69
  store i32 %119, ptr %120, align 4, !tbaa !4
  br label %122

122:                                              ; preds = %101
  %123 = load ptr, ptr %10, align 8, !tbaa !69
  %124 = load ptr, ptr %12, align 8, !tbaa !69
  %125 = icmp ult ptr %123, %124
  br i1 %125, label %101, label %126

126:                                              ; preds = %122
  %127 = load i64, ptr %18, align 8, !tbaa !71
  %128 = trunc i64 %127 to i32
  %129 = load ptr, ptr %15, align 8, !tbaa !69
  store i32 %128, ptr %129, align 4, !tbaa !4
  br label %130

130:                                              ; preds = %126, %93
  br label %131

131:                                              ; preds = %130
  %132 = load ptr, ptr %16, align 8, !tbaa !69
  %133 = getelementptr inbounds nuw i32, ptr %132, i32 1
  store ptr %133, ptr %16, align 8, !tbaa !69
  br label %89

134:                                              ; preds = %89
  %135 = load ptr, ptr %5, align 8, !tbaa !11
  %136 = getelementptr inbounds nuw %struct._zend_strtod_bigint, ptr %135, i32 0, i32 5
  %137 = getelementptr inbounds [1 x i32], ptr %136, i64 0, i64 0
  store ptr %137, ptr %16, align 8, !tbaa !69
  %138 = load ptr, ptr %16, align 8, !tbaa !69
  %139 = load i32, ptr %9, align 4, !tbaa !4
  %140 = sext i32 %139 to i64
  %141 = getelementptr inbounds i32, ptr %138, i64 %140
  store ptr %141, ptr %15, align 8, !tbaa !69
  br label %142

142:                                              ; preds = %154, %134
  %143 = load i32, ptr %9, align 4, !tbaa !4
  %144 = icmp sgt i32 %143, 0
  br i1 %144, label %145, label %151

145:                                              ; preds = %142
  %146 = load ptr, ptr %15, align 8, !tbaa !69
  %147 = getelementptr inbounds i32, ptr %146, i32 -1
  store ptr %147, ptr %15, align 8, !tbaa !69
  %148 = load i32, ptr %147, align 4, !tbaa !4
  %149 = icmp ne i32 %148, 0
  %150 = xor i1 %149, true
  br label %151

151:                                              ; preds = %145, %142
  %152 = phi i1 [ false, %142 ], [ %150, %145 ]
  br i1 %152, label %153, label %157

153:                                              ; preds = %151
  br label %154

154:                                              ; preds = %153
  %155 = load i32, ptr %9, align 4, !tbaa !4
  %156 = add nsw i32 %155, -1
  store i32 %156, ptr %9, align 4, !tbaa !4
  br label %142

157:                                              ; preds = %151
  %158 = load i32, ptr %9, align 4, !tbaa !4
  %159 = load ptr, ptr %5, align 8, !tbaa !11
  %160 = getelementptr inbounds nuw %struct._zend_strtod_bigint, ptr %159, i32 0, i32 4
  store i32 %158, ptr %160, align 4, !tbaa !64
  %161 = load ptr, ptr %5, align 8, !tbaa !11
  call void @llvm.lifetime.end.p0(i64 8, ptr %19) #7
  call void @llvm.lifetime.end.p0(i64 8, ptr %18) #7
  call void @llvm.lifetime.end.p0(i64 4, ptr %17) #7
  call void @llvm.lifetime.end.p0(i64 8, ptr %16) #7
  call void @llvm.lifetime.end.p0(i64 8, ptr %15) #7
  call void @llvm.lifetime.end.p0(i64 8, ptr %14) #7
  call void @llvm.lifetime.end.p0(i64 8, ptr %13) #7
  call void @llvm.lifetime.end.p0(i64 8, ptr %12) #7
  call void @llvm.lifetime.end.p0(i64 8, ptr %11) #7
  call void @llvm.lifetime.end.p0(i64 8, ptr %10) #7
  call void @llvm.lifetime.end.p0(i64 4, ptr %9) #7
  call void @llvm.lifetime.end.p0(i64 4, ptr %8) #7
  call void @llvm.lifetime.end.p0(i64 4, ptr %7) #7
  call void @llvm.lifetime.end.p0(i64 4, ptr %6) #7
  call void @llvm.lifetime.end.p0(i64 8, ptr %5) #7
  ret ptr %161
}