; Function Attrs: nounwind uwtable
define internal fastcc nonnull ptr @mult(ptr noundef readonly captures(address) %0, ptr noundef nonnull readonly captures(address) %1) unnamed_addr #0 {
  %3 = getelementptr inbounds nuw i8, ptr %0, i64 20
  %4 = load i32, ptr %3, align 4, !tbaa !52
  %5 = getelementptr inbounds nuw i8, ptr %1, i64 20
  %6 = load i32, ptr %5, align 4, !tbaa !52
  %7 = icmp slt i32 %4, %6
  %spec.select = select i1 %7, ptr %0, ptr %1
  %spec.select65 = select i1 %7, ptr %1, ptr %0
  %8 = getelementptr inbounds nuw i8, ptr %spec.select65, i64 8
  %9 = load i32, ptr %8, align 8, !tbaa !48
  %10 = getelementptr inbounds nuw i8, ptr %spec.select65, i64 20
  %11 = load i32, ptr %10, align 4, !tbaa !52
  %12 = getelementptr inbounds nuw i8, ptr %spec.select, i64 20
  %13 = load i32, ptr %12, align 4, !tbaa !52
  %14 = add nsw i32 %13, %11
  %15 = getelementptr inbounds nuw i8, ptr %spec.select65, i64 12
  %16 = load i32, ptr %15, align 4, !tbaa !49
  %17 = icmp sgt i32 %14, %16
  %18 = zext i1 %17 to i32
  %.058 = add nsw i32 %9, %18
  %19 = icmp slt i32 %.058, 8
  br i1 %19, label %20, label %26

20:                                               ; preds = %2
  %21 = sext i32 %.058 to i64
  %22 = getelementptr inbounds [8 x ptr], ptr getelementptr inbounds nuw (i8, ptr @executor_globals, i64 1856), i64 0, i64 %21
  %23 = load ptr, ptr %22, align 8, !tbaa !4
  %.not.i = icmp eq ptr %23, null
  br i1 %.not.i, label %26, label %24

24:                                               ; preds = %20
  %25 = load ptr, ptr %23, align 8, !tbaa !9
  store ptr %25, ptr %22, align 8, !tbaa !4
  br label %Balloc.exit

26:                                               ; preds = %20, %2
  %27 = shl nuw i32 1, %.058
  %28 = add nsw i32 %27, -1
  %29 = zext nneg i32 %28 to i64
  %30 = shl nuw nsw i64 %29, 2
  %31 = add nuw nsw i64 %30, 32
  %32 = tail call noalias ptr @malloc(i64 noundef %31) #14
  %.not16.i = icmp eq ptr %32, null
  br i1 %.not16.i, label %33, label %34

33:                                               ; preds = %26
  tail call void (i32, ptr, ...) @zend_error_noreturn(i32 noundef 1, ptr noundef nonnull @.str.8) #15
  unreachable

34:                                               ; preds = %26
  %35 = getelementptr inbounds nuw i8, ptr %32, i64 8
  store i32 %.058, ptr %35, align 8, !tbaa !48
  %36 = getelementptr inbounds nuw i8, ptr %32, i64 12
  store i32 %27, ptr %36, align 4, !tbaa !49
  br label %Balloc.exit

Balloc.exit:                                      ; preds = %24, %34
  %.0.i = phi ptr [ %23, %24 ], [ %32, %34 ]
  %37 = getelementptr inbounds nuw i8, ptr %.0.i, i64 20
  store i32 0, ptr %37, align 4, !tbaa !52
  %38 = getelementptr inbounds nuw i8, ptr %.0.i, i64 16
  store i32 0, ptr %38, align 8, !tbaa !50
  %.ptr = getelementptr i8, ptr %.0.i, i64 24
  %39 = sext i32 %14 to i64
  %.idx = shl nsw i64 %39, 2
  %40 = getelementptr i8, ptr %.0.i, i64 %.idx
  %.ptr78 = getelementptr i8, ptr %40, i64 24
  %41 = icmp sgt i32 %14, 0
  br i1 %41, label %.lr.ph.preheader, label %._crit_edge

.lr.ph.preheader:                                 ; preds = %Balloc.exit
  %.0.i83 = ptrtoint ptr %.0.i to i64
  %42 = add i64 %.idx, %.0.i83
  %43 = add i64 %42, 24
  %44 = add i64 %.0.i83, 28
  %umax = tail call i64 @llvm.umax.i64(i64 %43, i64 %44)
  %45 = add i64 %umax, -25
  %46 = sub i64 %45, %.0.i83
  %47 = and i64 %46, -4
  %48 = add i64 %47, 4
  tail call void @llvm.memset.p0.i64(ptr align 4 %.ptr, i8 0, i64 %48, i1 false), !tbaa !51
  br label %._crit_edge

._crit_edge:                                      ; preds = %.lr.ph.preheader, %Balloc.exit
  %49 = getelementptr inbounds nuw i8, ptr %spec.select65, i64 24
  %50 = sext i32 %11 to i64
  %51 = getelementptr inbounds i32, ptr %49, i64 %50
  %52 = sext i32 %13 to i64
  %.idx79 = shl nsw i64 %52, 2
  %53 = getelementptr i8, ptr %spec.select, i64 %.idx79
  %.ptr81 = getelementptr i8, ptr %53, i64 24
  %54 = icmp sgt i32 %13, 0
  br i1 %54, label %.lr.ph72.preheader, label %.preheader

.lr.ph72.preheader:                               ; preds = %._crit_edge
  %.ptr80 = getelementptr inbounds nuw i8, ptr %spec.select, i64 24
  br label %.lr.ph72

.preheader:                                       ; preds = %73, %._crit_edge
  br i1 %41, label %.lr.ph75, label %.critedge

.lr.ph72:                                         ; preds = %.lr.ph72.preheader, %73
  %.05570 = phi ptr [ %74, %73 ], [ %.ptr, %.lr.ph72.preheader ]
  %.05769 = phi ptr [ %55, %73 ], [ %.ptr80, %.lr.ph72.preheader ]
  %55 = getelementptr inbounds nuw i8, ptr %.05769, i64 4
  %56 = load i32, ptr %.05769, align 4, !tbaa !51
  %.not64 = icmp eq i32 %56, 0
  br i1 %.not64, label %73, label %.preheader66

.preheader66:                                     ; preds = %.lr.ph72
  %57 = zext i32 %56 to i64
  br label %58

58:                                               ; preds = %.preheader66, %58
  %.160 = phi ptr [ %59, %58 ], [ %49, %.preheader66 ]
  %.056 = phi ptr [ %69, %58 ], [ %.05570, %.preheader66 ]
  %.053 = phi i64 [ %67, %58 ], [ 0, %.preheader66 ]
  %59 = getelementptr inbounds nuw i8, ptr %.160, i64 4
  %60 = load i32, ptr %.160, align 4, !tbaa !51
  %61 = zext i32 %60 to i64
  %62 = mul nuw i64 %61, %57
  %63 = load i32, ptr %.056, align 4, !tbaa !51
  %64 = zext i32 %63 to i64
  %65 = add nuw nsw i64 %.053, %64
  %66 = add nuw i64 %65, %62
  %67 = lshr i64 %66, 32
  %68 = trunc i64 %66 to i32
  %69 = getelementptr inbounds nuw i8, ptr %.056, i64 4
  store i32 %68, ptr %.056, align 4, !tbaa !51
  %70 = icmp ult ptr %59, %51
  br i1 %70, label %58, label %71

71:                                               ; preds = %58
  %72 = trunc nuw i64 %67 to i32
  store i32 %72, ptr %69, align 4, !tbaa !51
  br label %73

73:                                               ; preds = %.lr.ph72, %71
  %74 = getelementptr inbounds nuw i8, ptr %.05570, i64 4
  %75 = icmp ult ptr %55, %.ptr81
  br i1 %75, label %.lr.ph72, label %.preheader

.lr.ph75:                                         ; preds = %.preheader, %78
  %.174 = phi ptr [ %76, %78 ], [ %.ptr78, %.preheader ]
  %.06173 = phi i32 [ %79, %78 ], [ %14, %.preheader ]
  %76 = getelementptr inbounds i8, ptr %.174, i64 -4
  %77 = load i32, ptr %76, align 4, !tbaa !51
  %.not = icmp eq i32 %77, 0
  br i1 %.not, label %78, label %.critedge

78:                                               ; preds = %.lr.ph75
  %79 = add nsw i32 %.06173, -1
  %80 = icmp sgt i32 %.06173, 1
  br i1 %80, label %.lr.ph75, label %.critedge

.critedge:                                        ; preds = %.lr.ph75, %78, %.preheader
  %.061.lcssa = phi i32 [ %14, %.preheader ], [ 0, %78 ], [ %.06173, %.lr.ph75 ]
  store i32 %.061.lcssa, ptr %37, align 4, !tbaa !52
  ret ptr %.0.i
}